target datalayout = "e-m:e-p270:32:32-p271:32:32-p272:64:64-i64:64-i128:128-f80:128-n8:16:32:64-S128"
target triple = "x86_64-pc-linux-gnu"

%"class.cv::Mat" = type { i32, i32, i32, i32, ptr, ptr, ptr, ptr, ptr, ptr, %"struct.cv::MatSize", %"struct.cv::MatStep" }
%"struct.cv::MatSize" = type { ptr }
%"struct.cv::MatStep" = type { ptr, [2 x i64] }
%"class.cv::MatExpr" = type { ptr, i32, %"class.cv::Mat", %"class.cv::Mat", %"class.cv::Mat", double, double, %"class.cv::Scalar_" }
%"class.cv::Scalar_" = type { %"class.cv::Vec" }
%"class.cv::Vec" = type { %"class.cv::Matx" }
%"class.cv::Matx" = type { [4 x double] }
%"class.cv::Vec.22" = type { %"class.cv::Matx.23" }
%"class.cv::Matx.23" = type { [3 x i8] }
%"class.cv::Vec.24" = type { %"class.cv::Matx.25" }
%"class.cv::Matx.25" = type { [10 x float] }

@_ZN2cv6detail8tracking10ColorNamesE = external constant [0 x [10 x float]], align 4

; Function Attrs: inlinehint mustprogress nounwind uwtable
define linkonce_odr hidden noundef nonnull align 4 dereferenceable(4) ptr @_ZN2cv3VecIfLi10EEixEi(ptr noundef nonnull align 4 dereferenceable(40) %0, i32 noundef %1) #6 comdat align 2 {
  %3 = alloca ptr, align 8
  %4 = alloca i32, align 4
  store ptr %0, ptr %3, align 8, !tbaa !213
  store i32 %1, ptr %4, align 4, !tbaa !17
  %5 = load ptr, ptr %3, align 8
  %6 = getelementptr inbounds nuw %"class.cv::Matx.25", ptr %5, i32 0, i32 0
  %7 = load i32, ptr %4, align 4, !tbaa !17
  %8 = sext i32 %7 to i64
  %9 = getelementptr inbounds [10 x float], ptr %6, i64 0, i64 %8
  ret ptr %9
}

; Function Attrs: inlinehint mustprogress nounwind uwtable
define linkonce_odr hidden noundef nonnull align 4 dereferenceable(40) ptr @_ZN2cv3Mat2atINS_3VecIfLi10EEEEERT_ii(ptr noundef nonnull align 8 dereferenceable(96) %0, i32 noundef %1, i32 noundef %2) #6 comdat align 2 {
  %4 = alloca ptr, align 8
  %5 = alloca i32, align 4
  %6 = alloca i32, align 4
  store ptr %0, ptr %4, align 8, !tbaa !121
  store i32 %1, ptr %5, align 4, !tbaa !17
  store i32 %2, ptr %6, align 4, !tbaa !17
  %7 = load ptr, ptr %4, align 8
  %8 = getelementptr inbounds nuw %"class.cv::Mat", ptr %7, i32 0, i32 4
  %9 = load ptr, ptr %8, align 8, !tbaa !135
  %10 = getelementptr inbounds nuw %"class.cv::Mat", ptr %7, i32 0, i32 11
  %11 = getelementptr inbounds nuw %"struct.cv::MatStep", ptr %10, i32 0, i32 0
  %12 = load ptr, ptr %11, align 8, !tbaa !136
  %13 = getelementptr inbounds i64, ptr %12, i64 0
  %14 = load i64, ptr %13, align 8, !tbaa !137
  %15 = load i32, ptr %5, align 4, !tbaa !17
  %16 = sext i32 %15 to i64
  %17 = mul i64 %14, %16
  %18 = getelementptr inbounds nuw i8, ptr %9, i64 %17
  %19 = load i32, ptr %6, align 4, !tbaa !17
  %20 = sext i32 %19 to i64
  %21 = getelementptr inbounds %"class.cv::Vec.24", ptr %18, i64 %20
  ret ptr %21
}

; Function Attrs: inlinehint mustprogress nounwind uwtable
define linkonce_odr hidden noundef nonnull align 1 dereferenceable(1) ptr @_ZN2cv3VecIhLi3EEixEi(ptr noundef nonnull align 1 dereferenceable(3) %0, i32 noundef %1) #6 comdat align 2 {
  %3 = alloca ptr, align 8
  %4 = alloca i32, align 4
  store ptr %0, ptr %3, align 8, !tbaa !207
  store i32 %1, ptr %4, align 4, !tbaa !17
  %5 = load ptr, ptr %3, align 8
  %6 = getelementptr inbounds nuw %"class.cv::Matx.23", ptr %5, i32 0, i32 0
  %7 = load i32, ptr %4, align 4, !tbaa !17
  %8 = sext i32 %7 to i64
  %9 = getelementptr inbounds [3 x i8], ptr %6, i64 0, i64 %8
  ret ptr %9
}

; Function Attrs: inlinehint mustprogress uwtable
define linkonce_odr hidden noundef nonnull align 8 dereferenceable(96) ptr @_ZN2cv3MataSERKNS_7MatExprE(ptr noundef nonnull align 8 dereferenceable(96) %0, ptr noundef nonnull align 8 dereferenceable(352) %1) #9 comdat align 2 {
  %3 = alloca ptr, align 8
  %4 = alloca ptr, align 8
  store ptr %0, ptr %3, align 8, !tbaa !121
  store ptr %1, ptr %4, align 8, !tbaa !127
  %5 = load ptr, ptr %3, align 8
  %6 = load ptr, ptr %4, align 8, !tbaa !127
  %7 = getelementptr inbounds nuw %"class.cv::MatExpr", ptr %6, i32 0, i32 0
  %8 = load ptr, ptr %7, align 8, !tbaa !129
  %9 = load ptr, ptr %4, align 8, !tbaa !127
  %10 = load ptr, ptr %8, align 8, !tbaa !10
  %11 = getelementptr inbounds ptr, ptr %10, i64 3
  %12 = load ptr, ptr %11, align 8
  call void %12(ptr noundef nonnull align 8 dereferenceable(8) %8, ptr noundef nonnull align 8 dereferenceable(352) %9, ptr noundef nonnull align 8 dereferenceable(96) %5, i32 noundef -1)
  ret ptr %5
}

; Function Attrs: inlinehint mustprogress nounwind uwtable
define linkonce_odr hidden noundef i32 @_ZNK2cv3Mat4typeEv(ptr noundef nonnull align 8 dereferenceable(96) %0) #6 comdat align 2 {
  %2 = alloca ptr, align 8
  store ptr %0, ptr %2, align 8, !tbaa !121
  %3 = load ptr, ptr %2, align 8
  %4 = getelementptr inbounds nuw %"class.cv::Mat", ptr %3, i32 0, i32 0
  %5 = load i32, ptr %4, align 8, !tbaa !192
  %6 = and i32 %5, 4095
  ret i32 %6
}

; Function Attrs: inlinehint mustprogress nounwind uwtable
define linkonce_odr hidden noundef nonnull align 1 dereferenceable(3) ptr @_ZN2cv3Mat2atINS_3VecIhLi3EEEEERT_ii(ptr noundef nonnull align 8 dereferenceable(96) %0, i32 noundef %1, i32 noundef %2) #6 comdat align 2 {
  %4 = alloca ptr, align 8
  %5 = alloca i32, align 4
  %6 = alloca i32, align 4
  store ptr %0, ptr %4, align 8, !tbaa !121
  store i32 %1, ptr %5, align 4, !tbaa !17
  store i32 %2, ptr %6, align 4, !tbaa !17
  %7 = load ptr, ptr %4, align 8
  %8 = getelementptr inbounds nuw %"class.cv::Mat", ptr %7, i32 0, i32 4
  %9 = load ptr, ptr %8, align 8, !tbaa !135
  %10 = getelementptr inbounds nuw %"class.cv::Mat", ptr %7, i32 0, i32 11
  %11 = getelementptr inbounds nuw %"struct.cv::MatStep", ptr %10, i32 0, i32 0
  %12 = load ptr, ptr %11, align 8, !tbaa !136
  %13 = getelementptr inbounds i64, ptr %12, i64 0
  %14 = load i64, ptr %13, align 8, !tbaa !137
  %15 = load i32, ptr %5, align 4, !tbaa !17
  %16 = sext i32 %15 to i64
  %17 = mul i64 %14, %16
  %18 = getelementptr inbounds nuw i8, ptr %9, i64 %17
  %19 = load i32, ptr %6, align 4, !tbaa !17
  %20 = sext i32 %19 to i64
  %21 = getelementptr inbounds %"class.cv::Vec.22", ptr %18, i64 %20
  ret ptr %21
}

; Function Attrs: mustprogress uwtable
define hidden void @_ZNK2cv8tracking4impl14TrackerKCFImpl9extractCNENS_3MatERS3_(ptr noundef nonnull align 8 dereferenceable(3680) %0, ptr noundef %1, ptr noundef nonnull align 8 dereferenceable(96) %2) #4 align 2 personality ptr @__gxx_personality_v0 {
  %4 = alloca ptr, align 8
  %5 = alloca ptr, align 8
  %6 = alloca ptr, align 8
  %7 = alloca ptr, align 8
  %8 = alloca i32, align 4
  %9 = alloca %"class.cv::MatExpr", align 8
  %10 = alloca ptr, align 8
  %11 = alloca i32, align 4
  %12 = alloca i32, align 4
  %13 = alloca i32, align 4
  %14 = alloca i32, align 4
  %15 = alloca i32, align 4
  store ptr %0, ptr %4, align 8, !tbaa !3
  store ptr %1, ptr %5, align 8, !tbaa !121
  store ptr %2, ptr %6, align 8, !tbaa !121
  call void @llvm.lifetime.start.p0(i64 8, ptr %7) #3
  %16 = call noundef nonnull align 1 dereferenceable(3) ptr @_ZN2cv3Mat2atINS_3VecIhLi3EEEEERT_ii(ptr noundef nonnull align 8 dereferenceable(96) %1, i32 noundef 0, i32 noundef 0)
  store ptr %16, ptr %7, align 8, !tbaa !207
  call void @llvm.lifetime.start.p0(i64 4, ptr %8) #3
  %17 = load ptr, ptr %6, align 8, !tbaa !121
  %18 = call noundef i32 @_ZNK2cv3Mat4typeEv(ptr noundef nonnull align 8 dereferenceable(96) %17)
  %19 = icmp ne i32 %18, 77
  br i1 %19, label %20, label %32

20:                                               ; preds = %3
  call void @llvm.lifetime.start.p0(i64 352, ptr %9) #3
  %21 = getelementptr inbounds nuw %"class.cv::Mat", ptr %1, i32 0, i32 2
  %22 = load i32, ptr %21, align 8, !tbaa !110
  %23 = getelementptr inbounds nuw %"class.cv::Mat", ptr %1, i32 0, i32 3
  %24 = load i32, ptr %23, align 4, !tbaa !111
  call void @_ZN2cv3Mat5zerosEiii(ptr dead_on_unwind writable sret(%"class.cv::MatExpr") align 8 %9, i32 noundef %22, i32 noundef %24, i32 noundef 77)
  %25 = load ptr, ptr %6, align 8, !tbaa !121
  %26 = invoke noundef nonnull align 8 dereferenceable(96) ptr @_ZN2cv3MataSERKNS_7MatExprE(ptr noundef nonnull align 8 dereferenceable(96) %25, ptr noundef nonnull align 8 dereferenceable(352) %9)
          to label %27 unwind label %28

27:                                               ; preds = %20
  call void @_ZN2cv7MatExprD2Ev(ptr noundef nonnull align 8 dereferenceable(352) %9) #3
  call void @llvm.lifetime.end.p0(i64 352, ptr %9) #3
  br label %32

28:                                               ; preds = %20
  %29 = landingpad { ptr, i32 }
          cleanup
  %30 = extractvalue { ptr, i32 } %29, 0
  store ptr %30, ptr %10, align 8
  %31 = extractvalue { ptr, i32 } %29, 1
  store i32 %31, ptr %11, align 4
  call void @_ZN2cv7MatExprD2Ev(ptr noundef nonnull align 8 dereferenceable(352) %9) #3
  call void @llvm.lifetime.end.p0(i64 352, ptr %9) #3
  call void @llvm.lifetime.end.p0(i64 4, ptr %8) #3
  call void @llvm.lifetime.end.p0(i64 8, ptr %7) #3
  br label %105

32:                                               ; preds = %27, %3
  call void @llvm.lifetime.start.p0(i64 4, ptr %12) #3
  store i32 0, ptr %12, align 4, !tbaa !17
  br label %33

33:                                               ; preds = %101, %32
  %34 = load i32, ptr %12, align 4, !tbaa !17
  %35 = getelementptr inbounds nuw %"class.cv::Mat", ptr %1, i32 0, i32 2
  %36 = load i32, ptr %35, align 8, !tbaa !110
  %37 = icmp slt i32 %34, %36
  br i1 %37, label %39, label %38

38:                                               ; preds = %33
  store i32 2, ptr %13, align 4
  call void @llvm.lifetime.end.p0(i64 4, ptr %12) #3
  br label %104

39:                                               ; preds = %33
  call void @llvm.lifetime.start.p0(i64 4, ptr %14) #3
  store i32 0, ptr %14, align 4, !tbaa !17
  br label %40

40:                                               ; preds = %97, %39
  %41 = load i32, ptr %14, align 4, !tbaa !17
  %42 = getelementptr inbounds nuw %"class.cv::Mat", ptr %1, i32 0, i32 3
  %43 = load i32, ptr %42, align 4, !tbaa !111
  %44 = icmp slt i32 %41, %43
  br i1 %44, label %46, label %45

45:                                               ; preds = %40
  store i32 5, ptr %13, align 4
  call void @llvm.lifetime.end.p0(i64 4, ptr %14) #3
  br label %100

46:                                               ; preds = %40
  %47 = load i32, ptr %12, align 4, !tbaa !17
  %48 = load i32, ptr %14, align 4, !tbaa !17
  %49 = call noundef nonnull align 1 dereferenceable(3) ptr @_ZN2cv3Mat2atINS_3VecIhLi3EEEEERT_ii(ptr noundef nonnull align 8 dereferenceable(96) %1, i32 noundef %47, i32 noundef %48)
  %50 = load ptr, ptr %7, align 8, !tbaa !207
  call void @llvm.memcpy.p0.p0.i64(ptr align 1 %50, ptr align 1 %49, i64 3, i1 false)
  %51 = load ptr, ptr %7, align 8, !tbaa !207
  %52 = call noundef nonnull align 1 dereferenceable(1) ptr @_ZN2cv3VecIhLi3EEixEi(ptr noundef nonnull align 1 dereferenceable(3) %51, i32 noundef 2)
  %53 = load i8, ptr %52, align 1, !tbaa !199
  %54 = uitofp i8 %53 to float
  %55 = fdiv float %54, 8.000000e+00
  %56 = fpext float %55 to double
  %57 = call double @llvm.floor.f64(double %56)
  %58 = load ptr, ptr %7, align 8, !tbaa !207
  %59 = call noundef nonnull align 1 dereferenceable(1) ptr @_ZN2cv3VecIhLi3EEixEi(ptr noundef nonnull align 1 dereferenceable(3) %58, i32 noundef 1)
  %60 = load i8, ptr %59, align 1, !tbaa !199
  %61 = uitofp i8 %60 to float
  %62 = fdiv float %61, 8.000000e+00
  %63 = fpext float %62 to double
  %64 = call double @llvm.floor.f64(double %63)
  %65 = call double @llvm.fmuladd.f64(double 3.200000e+01, double %64, double %57)
  %66 = load ptr, ptr %7, align 8, !tbaa !207
  %67 = call noundef nonnull align 1 dereferenceable(1) ptr @_ZN2cv3VecIhLi3EEixEi(ptr noundef nonnull align 1 dereferenceable(3) %66, i32 noundef 0)
  %68 = load i8, ptr %67, align 1, !tbaa !199
  %69 = uitofp i8 %68 to float
  %70 = fdiv float %69, 8.000000e+00
  %71 = fpext float %70 to double
  %72 = call double @llvm.floor.f64(double %71)
  %73 = call double @llvm.fmuladd.f64(double 1.024000e+03, double %72, double %65)
  %74 = fptoui double %73 to i32
  store i32 %74, ptr %8, align 4, !tbaa !17
  call void @llvm.lifetime.start.p0(i64 4, ptr %15) #3
  store i32 0, ptr %15, align 4, !tbaa !17
  br label %75

75:                                               ; preds = %93, %46
  %76 = load i32, ptr %15, align 4, !tbaa !17
  %77 = icmp slt i32 %76, 10
  br i1 %77, label %79, label %78

78:                                               ; preds = %75
  store i32 8, ptr %13, align 4
  call void @llvm.lifetime.end.p0(i64 4, ptr %15) #3
  br label %96

79:                                               ; preds = %75
  %80 = load i32, ptr %8, align 4, !tbaa !17
  %81 = zext i32 %80 to i64
  %82 = getelementptr inbounds nuw [0 x [10 x float]], ptr @_ZN2cv6detail8tracking10ColorNamesE, i64 0, i64 %81
  %83 = load i32, ptr %15, align 4, !tbaa !17
  %84 = sext i32 %83 to i64
  %85 = getelementptr inbounds [10 x float], ptr %82, i64 0, i64 %84
  %86 = load float, ptr %85, align 4, !tbaa !13
  %87 = load ptr, ptr %6, align 8, !tbaa !121
  %88 = load i32, ptr %12, align 4, !tbaa !17
  %89 = load i32, ptr %14, align 4, !tbaa !17
  %90 = call noundef nonnull align 4 dereferenceable(40) ptr @_ZN2cv3Mat2atINS_3VecIfLi10EEEEERT_ii(ptr noundef nonnull align 8 dereferenceable(96) %87, i32 noundef %88, i32 noundef %89)
  %91 = load i32, ptr %15, align 4, !tbaa !17
  %92 = call noundef nonnull align 4 dereferenceable(4) ptr @_ZN2cv3VecIfLi10EEixEi(ptr noundef nonnull align 4 dereferenceable(40) %90, i32 noundef %91)
  store float %86, ptr %92, align 4, !tbaa !13
  br label %93

93:                                               ; preds = %79
  %94 = load i32, ptr %15, align 4, !tbaa !17
  %95 = add nsw i32 %94, 1
  store i32 %95, ptr %15, align 4, !tbaa !17
  br label %75, !llvm.loop !209

96:                                               ; preds = %78
  br label %97

97:                                               ; preds = %96
  %98 = load i32, ptr %14, align 4, !tbaa !17
  %99 = add nsw i32 %98, 1
  store i32 %99, ptr %14, align 4, !tbaa !17
  br label %40, !llvm.loop !210

100:                                              ; preds = %45
  br label %101

101:                                              ; preds = %100
  %102 = load i32, ptr %12, align 4, !tbaa !17
  %103 = add nsw i32 %102, 1
  store i32 %103, ptr %12, align 4, !tbaa !17
  br label %33, !llvm.loop !211

104:                                              ; preds = %38
  call void @llvm.lifetime.end.p0(i64 4, ptr %8) #3
  call void @llvm.lifetime.end.p0(i64 8, ptr %7) #3
  ret void

105:                                              ; preds = %28
  %106 = load ptr, ptr %10, align 8
  %107 = load i32, ptr %11, align 4
  %108 = insertvalue { ptr, i32 } poison, ptr %106, 0
  %109 = insertvalue { ptr, i32 } %108, i32 %107, 1
  resume { ptr, i32 } %109
}