; Function Attrs: mustprogress uwtable
define hidden void @_ZNK2cv8tracking4impl14TrackerKCFImpl9extractCNENS_3MatERS3_(ptr nonnull readnone align 8 captures(none) %0, ptr noundef readonly captures(none) %1, ptr noundef nonnull align 8 dereferenceable(96) %2) local_unnamed_addr #3 align 2 personality ptr @__gxx_personality_v0 {
  %4 = alloca %"class.cv::MatExpr", align 8
  %5 = getelementptr inbounds nuw i8, ptr %1, i64 16
  %6 = load ptr, ptr %5, align 8, !tbaa !130
  %7 = getelementptr inbounds nuw i8, ptr %1, i64 72
  %8 = load i32, ptr %2, align 8, !tbaa !129
  %9 = and i32 %8, 4095
  %.not = icmp eq i32 %9, 77
  br i1 %.not, label %24, label %10

10:                                               ; preds = %3
  call void @llvm.lifetime.start.p0(i64 352, ptr nonnull %4) #28
  %11 = getelementptr inbounds nuw i8, ptr %1, i64 8
  %12 = load i32, ptr %11, align 8, !tbaa !123
  %13 = getelementptr inbounds nuw i8, ptr %1, i64 12
  %14 = load i32, ptr %13, align 4, !tbaa !124
  call void @_ZN2cv3Mat5zerosEiii(ptr dead_on_unwind nonnull writable sret(%"class.cv::MatExpr") align 8 %4, i32 noundef %12, i32 noundef %14, i32 noundef 77)
  %15 = load ptr, ptr %4, align 8, !tbaa !77
  %16 = load ptr, ptr %15, align 8, !tbaa !3
  %17 = getelementptr inbounds nuw i8, ptr %16, i64 24
  %18 = load ptr, ptr %17, align 8
  invoke void %18(ptr noundef nonnull align 8 dereferenceable(8) %15, ptr noundef nonnull align 8 dereferenceable(352) %4, ptr noundef nonnull align 8 dereferenceable(96) %2, i32 noundef -1)
          to label %_ZN2cv3MataSERKNS_7MatExprE.exit unwind label %22

_ZN2cv3MataSERKNS_7MatExprE.exit:                 ; preds = %10
  %19 = getelementptr inbounds nuw i8, ptr %4, i64 208
  call void @_ZN2cv3MatD1Ev(ptr noundef nonnull align 8 dereferenceable(96) %19) #28
  %20 = getelementptr inbounds nuw i8, ptr %4, i64 112
  call void @_ZN2cv3MatD1Ev(ptr noundef nonnull align 8 dereferenceable(96) %20) #28
  %21 = getelementptr inbounds nuw i8, ptr %4, i64 16
  call void @_ZN2cv3MatD1Ev(ptr noundef nonnull align 8 dereferenceable(96) %21) #28
  call void @llvm.lifetime.end.p0(i64 352, ptr nonnull %4) #28
  br label %24

22:                                               ; preds = %10
  %23 = landingpad { ptr, i32 }
          cleanup
  call void @_ZN2cv7MatExprD2Ev(ptr noundef nonnull align 8 dereferenceable(352) %4) #28
  call void @llvm.lifetime.end.p0(i64 352, ptr nonnull %4) #28
  resume { ptr, i32 } %23

24:                                               ; preds = %_ZN2cv3MataSERKNS_7MatExprE.exit, %3
  %25 = getelementptr inbounds nuw i8, ptr %1, i64 8
  %26 = load i32, ptr %25, align 8, !tbaa !123
  %27 = icmp sgt i32 %26, 0
  br i1 %27, label %.preheader.lr.ph, label %._crit_edge26

.preheader.lr.ph:                                 ; preds = %24
  %28 = getelementptr inbounds nuw i8, ptr %1, i64 12
  %29 = getelementptr inbounds nuw i8, ptr %6, i64 2
  %30 = getelementptr inbounds nuw i8, ptr %6, i64 1
  %31 = getelementptr inbounds nuw i8, ptr %2, i64 16
  %32 = getelementptr inbounds nuw i8, ptr %2, i64 72
  %33 = load i32, ptr %28, align 4, !tbaa !124
  %34 = icmp sgt i32 %33, 0
  br i1 %34, label %.preheader, label %._crit_edge26

.preheader:                                       ; preds = %.preheader.lr.ph, %._crit_edge
  %35 = phi i32 [ %38, %._crit_edge ], [ %26, %.preheader.lr.ph ]
  %36 = phi i32 [ %39, %._crit_edge ], [ %33, %.preheader.lr.ph ]
  %indvars.iv32 = phi i64 [ %indvars.iv.next33, %._crit_edge ], [ 0, %.preheader.lr.ph ]
  %37 = icmp sgt i32 %36, 0
  br i1 %37, label %.lr.ph, label %._crit_edge

._crit_edge26:                                    ; preds = %._crit_edge, %.preheader.lr.ph, %24
  ret void

._crit_edge.loopexit:                             ; preds = %73
  %.pre = load i32, ptr %25, align 8, !tbaa !123
  br label %._crit_edge

._crit_edge:                                      ; preds = %._crit_edge.loopexit, %.preheader
  %38 = phi i32 [ %.pre, %._crit_edge.loopexit ], [ %35, %.preheader ]
  %39 = phi i32 [ %74, %._crit_edge.loopexit ], [ %36, %.preheader ]
  %indvars.iv.next33 = add nuw nsw i64 %indvars.iv32, 1
  %40 = sext i32 %38 to i64
  %41 = icmp slt i64 %indvars.iv.next33, %40
  br i1 %41, label %.preheader, label %._crit_edge26, !llvm.loop !186

.lr.ph:                                           ; preds = %.preheader, %73
  %indvars.iv29 = phi i64 [ %indvars.iv.next30, %73 ], [ 0, %.preheader ]
  %42 = load ptr, ptr %5, align 8, !tbaa !130
  %43 = load ptr, ptr %7, align 8, !tbaa !131
  %44 = load i64, ptr %43, align 8, !tbaa !83
  %45 = mul i64 %44, %indvars.iv32
  %46 = getelementptr inbounds nuw i8, ptr %42, i64 %45
  %47 = getelementptr inbounds nuw %"class.cv::Vec.22", ptr %46, i64 %indvars.iv29
  call void @llvm.memcpy.p0.p0.i64(ptr noundef nonnull align 1 dereferenceable(3) %6, ptr noundef nonnull align 1 dereferenceable(3) %47, i64 3, i1 false)
  %48 = load i8, ptr %29, align 1, !tbaa !102
  %49 = uitofp i8 %48 to float
  %50 = fmul float %49, 1.250000e-01
  %51 = call float @llvm.floor.f32(float %50)
  %52 = fpext float %51 to double
  %53 = load i8, ptr %30, align 1, !tbaa !102
  %54 = uitofp i8 %53 to float
  %55 = fmul float %54, 1.250000e-01
  %56 = call float @llvm.floor.f32(float %55)
  %57 = fpext float %56 to double
  %58 = call double @llvm.fmuladd.f64(double %57, double 3.200000e+01, double %52)
  %59 = load i8, ptr %6, align 1, !tbaa !102
  %60 = uitofp i8 %59 to float
  %61 = fmul float %60, 1.250000e-01
  %62 = call float @llvm.floor.f32(float %61)
  %63 = fpext float %62 to double
  %64 = call double @llvm.fmuladd.f64(double %63, double 1.024000e+03, double %58)
  %65 = fptoui double %64 to i32
  %66 = zext i32 %65 to i64
  %67 = load ptr, ptr %31, align 8, !tbaa !130
  %68 = load ptr, ptr %32, align 8, !tbaa !131
  %69 = load i64, ptr %68, align 8, !tbaa !83
  %70 = mul i64 %69, %indvars.iv32
  %71 = getelementptr inbounds nuw i8, ptr %67, i64 %70
  %72 = getelementptr inbounds nuw %"class.cv::Vec.24", ptr %71, i64 %indvars.iv29
  br label %77

73:                                               ; preds = %77
  %indvars.iv.next30 = add nuw nsw i64 %indvars.iv29, 1
  %74 = load i32, ptr %28, align 4, !tbaa !124
  %75 = sext i32 %74 to i64
  %76 = icmp slt i64 %indvars.iv.next30, %75
  br i1 %76, label %.lr.ph, label %._crit_edge.loopexit, !llvm.loop !188

77:                                               ; preds = %.lr.ph, %77
  %indvars.iv = phi i64 [ 0, %.lr.ph ], [ %indvars.iv.next, %77 ]
  %78 = getelementptr inbounds nuw [0 x [10 x float]], ptr @_ZN2cv6detail8tracking10ColorNamesE, i64 0, i64 %66, i64 %indvars.iv
  %79 = load float, ptr %78, align 4, !tbaa !7
  %80 = getelementptr inbounds nuw [10 x float], ptr %72, i64 0, i64 %indvars.iv
  store float %79, ptr %80, align 4, !tbaa !7
  %indvars.iv.next = add nuw nsw i64 %indvars.iv, 1
  %exitcond.not = icmp eq i64 %indvars.iv.next, 10
  br i1 %exitcond.not, label %73, label %77, !llvm.loop !189
}